target datalayout = "e-m:e-p270:32:32-p271:32:32-p272:64:64-i64:64-i128:128-f80:128-n8:16:32:64-S128"
target triple = "x86_64-unknown-linux-gnu"

%"class.Assimp::Exporter" = type { ptr }
%struct.aiExportFormatDesc = type { ptr, ptr, ptr }

; Function Attrs: mustprogress uwtable
define ptr @aiGetExportFormatDescription(i64 noundef %index) #2 personality ptr @__gxx_personality_v0 {
entry:
  %retval = alloca ptr, align 8
  %index.addr = alloca i64, align 8
  %exporter = alloca %"class.Assimp::Exporter", align 8
  %orig = alloca ptr, align 8
  %exn.slot = alloca ptr, align 8
  %ehselector.slot = alloca i32, align 4
  %cleanup.dest.slot = alloca i32, align 4
  %desc = alloca ptr, align 8
  store i64 %index, ptr %index.addr, align 8
  call void @_ZN6Assimp8ExporterC1Ev(ptr noundef nonnull align 8 dereferenceable(8) %exporter)
  %0 = load i64, ptr %index.addr, align 8
  %call = invoke noundef ptr @_ZNK6Assimp8Exporter26GetExportFormatDescriptionEm(ptr noundef nonnull align 8 dereferenceable(8) %exporter, i64 noundef %0)
          to label %invoke.cont unwind label %lpad

invoke.cont:                                      ; preds = %entry
  store ptr %call, ptr %orig, align 8
  %1 = load ptr, ptr %orig, align 8
  %cmp = icmp eq ptr null, %1
  br i1 %cmp, label %if.then, label %if.end

if.then:                                          ; preds = %invoke.cont
  store ptr null, ptr %retval, align 8
  store i32 1, ptr %cleanup.dest.slot, align 4
  br label %cleanup

lpad:                                             ; preds = %invoke.cont13, %invoke.cont4, %invoke.cont1, %if.end, %entry
  %2 = landingpad { ptr, i32 }
          cleanup
  %3 = extractvalue { ptr, i32 } %2, 0
  store ptr %3, ptr %exn.slot, align 8
  %4 = extractvalue { ptr, i32 } %2, 1
  store i32 %4, ptr %ehselector.slot, align 4
  call void @_ZN6Assimp8ExporterD1Ev(ptr noundef nonnull align 8 dereferenceable(8) %exporter) #13
  br label %eh.resume

if.end:                                           ; preds = %invoke.cont
  %call2 = invoke noalias noundef nonnull ptr @_Znwm(i64 noundef 24) #14
          to label %invoke.cont1 unwind label %lpad

invoke.cont1:                                     ; preds = %if.end
  store ptr %call2, ptr %desc, align 8
  %5 = load ptr, ptr %orig, align 8
  %description = getelementptr inbounds %struct.aiExportFormatDesc, ptr %5, i32 0, i32 1
  %6 = load ptr, ptr %description, align 8
  %call3 = call i64 @strlen(ptr noundef %6) #15
  %add = add i64 %call3, 1
  %call5 = invoke noalias noundef nonnull ptr @_Znam(i64 noundef %add) #14
          to label %invoke.cont4 unwind label %lpad

invoke.cont4:                                     ; preds = %invoke.cont1
  call void @llvm.memset.p0.i64(ptr align 1 %call5, i8 0, i64 %add, i1 false)
  %7 = load ptr, ptr %desc, align 8
  %description6 = getelementptr inbounds %struct.aiExportFormatDesc, ptr %7, i32 0, i32 1
  store ptr %call5, ptr %description6, align 8
  %8 = load ptr, ptr %desc, align 8
  %description7 = getelementptr inbounds %struct.aiExportFormatDesc, ptr %8, i32 0, i32 1
  %9 = load ptr, ptr %description7, align 8
  %10 = load ptr, ptr %orig, align 8
  %description8 = getelementptr inbounds %struct.aiExportFormatDesc, ptr %10, i32 0, i32 1
  %11 = load ptr, ptr %description8, align 8
  %12 = load ptr, ptr %orig, align 8
  %description9 = getelementptr inbounds %struct.aiExportFormatDesc, ptr %12, i32 0, i32 1
  %13 = load ptr, ptr %description9, align 8
  %call10 = call i64 @strlen(ptr noundef %13) #15
  call void @llvm.memcpy.p0.p0.i64(ptr align 1 %9, ptr align 1 %11, i64 %call10, i1 false)
  %14 = load ptr, ptr %orig, align 8
  %fileExtension = getelementptr inbounds %struct.aiExportFormatDesc, ptr %14, i32 0, i32 2
  %15 = load ptr, ptr %fileExtension, align 8
  %call11 = call i64 @strlen(ptr noundef %15) #15
  %add12 = add i64 %call11, 1
  %call14 = invoke noalias noundef nonnull ptr @_Znam(i64 noundef %add12) #14
          to label %invoke.cont13 unwind label %lpad

invoke.cont13:                                    ; preds = %invoke.cont4
  call void @llvm.memset.p0.i64(ptr align 1 %call14, i8 0, i64 %add12, i1 false)
  %16 = load ptr, ptr %desc, align 8
  %fileExtension15 = getelementptr inbounds %struct.aiExportFormatDesc, ptr %16, i32 0, i32 2
  store ptr %call14, ptr %fileExtension15, align 8
  %17 = load ptr, ptr %desc, align 8
  %fileExtension16 = getelementptr inbounds %struct.aiExportFormatDesc, ptr %17, i32 0, i32 2
  %18 = load ptr, ptr %fileExtension16, align 8
  %19 = load ptr, ptr %orig, align 8
  %fileExtension17 = getelementptr inbounds %struct.aiExportFormatDesc, ptr %19, i32 0, i32 2
  %20 = load ptr, ptr %fileExtension17, align 8
  %21 = load ptr, ptr %orig, align 8
  %fileExtension18 = getelementptr inbounds %struct.aiExportFormatDesc, ptr %21, i32 0, i32 2
  %22 = load ptr, ptr %fileExtension18, align 8
  %call19 = call i64 @strlen(ptr noundef %22) #15
  call void @llvm.memcpy.p0.p0.i64(ptr align 1 %18, ptr align 1 %20, i64 %call19, i1 false)
  %23 = load ptr, ptr %orig, align 8
  %id = getelementptr inbounds %struct.aiExportFormatDesc, ptr %23, i32 0, i32 0
  %24 = load ptr, ptr %id, align 8
  %call20 = call i64 @strlen(ptr noundef %24) #15
  %add21 = add i64 %call20, 1
  %call23 = invoke noalias noundef nonnull ptr @_Znam(i64 noundef %add21) #14
          to label %invoke.cont22 unwind label %lpad

invoke.cont22:                                    ; preds = %invoke.cont13
  call void @llvm.memset.p0.i64(ptr align 1 %call23, i8 0, i64 %add21, i1 false)
  %25 = load ptr, ptr %desc, align 8
  %id24 = getelementptr inbounds %struct.aiExportFormatDesc, ptr %25, i32 0, i32 0
  store ptr %call23, ptr %id24, align 8
  %26 = load ptr, ptr %desc, align 8
  %id25 = getelementptr inbounds %struct.aiExportFormatDesc, ptr %26, i32 0, i32 0
  %27 = load ptr, ptr %id25, align 8
  %28 = load ptr, ptr %orig, align 8
  %id26 = getelementptr inbounds %struct.aiExportFormatDesc, ptr %28, i32 0, i32 0
  %29 = load ptr, ptr %id26, align 8
  %30 = load ptr, ptr %orig, align 8
  %id27 = getelementptr inbounds %struct.aiExportFormatDesc, ptr %30, i32 0, i32 0
  %31 = load ptr, ptr %id27, align 8
  %call28 = call i64 @strlen(ptr noundef %31) #15
  call void @llvm.memcpy.p0.p0.i64(ptr align 1 %27, ptr align 1 %29, i64 %call28, i1 false)
  %32 = load ptr, ptr %desc, align 8
  store ptr %32, ptr %retval, align 8
  store i32 1, ptr %cleanup.dest.slot, align 4
  br label %cleanup

cleanup:                                          ; preds = %invoke.cont22, %if.then
  call void @_ZN6Assimp8ExporterD1Ev(ptr noundef nonnull align 8 dereferenceable(8) %exporter) #13
  %33 = load ptr, ptr %retval, align 8
  ret ptr %33

eh.resume:                                        ; preds = %lpad
  %exn = load ptr, ptr %exn.slot, align 8
  %sel = load i32, ptr %ehselector.slot, align 4
  %lpad.val = insertvalue { ptr, i32 } poison, ptr %exn, 0
  %lpad.val29 = insertvalue { ptr, i32 } %lpad.val, i32 %sel, 1
  resume { ptr, i32 } %lpad.val29
}