; Function Attrs: mustprogress uwtable
define noalias noundef ptr @aiGetExportFormatDescription(i64 noundef %index) local_unnamed_addr #0 personality ptr @__gxx_personality_v0 {
entry:
  %exporter = alloca %"class.Assimp::Exporter", align 8
  call void @_ZN6Assimp8ExporterC1Ev(ptr noundef nonnull align 8 dereferenceable(8) %exporter)
  %call = invoke noundef ptr @_ZNK6Assimp8Exporter26GetExportFormatDescriptionEm(ptr noundef nonnull align 8 dereferenceable(8) %exporter, i64 noundef %index)
          to label %invoke.cont unwind label %lpad

invoke.cont:                                      ; preds = %entry
  %cmp = icmp eq ptr %call, null
  br i1 %cmp, label %cleanup, label %if.end

lpad:                                             ; preds = %invoke.cont13, %invoke.cont4, %invoke.cont1, %if.end, %entry
  %0 = landingpad { ptr, i32 }
          cleanup
  call void @_ZN6Assimp8ExporterD1Ev(ptr noundef nonnull align 8 dereferenceable(8) %exporter) #10
  resume { ptr, i32 } %0

if.end:                                           ; preds = %invoke.cont
  %call2 = invoke noalias noundef nonnull dereferenceable(24) ptr @_Znwm(i64 noundef 24) #11
          to label %invoke.cont1 unwind label %lpad

invoke.cont1:                                     ; preds = %if.end
  %description = getelementptr inbounds i8, ptr %call, i64 8
  %1 = load ptr, ptr %description, align 8
  %call3 = call i64 @strlen(ptr noundef nonnull dereferenceable(1) %1) #12
  %add = add i64 %call3, 1
  %call5 = invoke noalias noundef nonnull ptr @_Znam(i64 noundef %add) #11
          to label %invoke.cont4 unwind label %lpad

invoke.cont4:                                     ; preds = %invoke.cont1
  call void @llvm.memset.p0.i64(ptr nonnull align 1 %call5, i8 0, i64 %add, i1 false)
  %description6 = getelementptr inbounds i8, ptr %call2, i64 8
  store ptr %call5, ptr %description6, align 8
  %call10 = call i64 @strlen(ptr noundef nonnull dereferenceable(1) %1) #12
  call void @llvm.memcpy.p0.p0.i64(ptr nonnull align 1 %call5, ptr align 1 %1, i64 %call10, i1 false)
  %fileExtension = getelementptr inbounds i8, ptr %call, i64 16
  %2 = load ptr, ptr %fileExtension, align 8
  %call11 = call i64 @strlen(ptr noundef nonnull dereferenceable(1) %2) #12
  %add12 = add i64 %call11, 1
  %call14 = invoke noalias noundef nonnull ptr @_Znam(i64 noundef %add12) #11
          to label %invoke.cont13 unwind label %lpad

invoke.cont13:                                    ; preds = %invoke.cont4
  call void @llvm.memset.p0.i64(ptr nonnull align 1 %call14, i8 0, i64 %add12, i1 false)
  %fileExtension15 = getelementptr inbounds i8, ptr %call2, i64 16
  store ptr %call14, ptr %fileExtension15, align 8
  %call19 = call i64 @strlen(ptr noundef nonnull dereferenceable(1) %2) #12
  call void @llvm.memcpy.p0.p0.i64(ptr nonnull align 1 %call14, ptr align 1 %2, i64 %call19, i1 false)
  %3 = load ptr, ptr %call, align 8
  %call20 = call i64 @strlen(ptr noundef nonnull dereferenceable(1) %3) #12
  %add21 = add i64 %call20, 1
  %call23 = invoke noalias noundef nonnull ptr @_Znam(i64 noundef %add21) #11
          to label %invoke.cont22 unwind label %lpad

invoke.cont22:                                    ; preds = %invoke.cont13
  call void @llvm.memset.p0.i64(ptr nonnull align 1 %call23, i8 0, i64 %add21, i1 false)
  store ptr %call23, ptr %call2, align 8
  %call28 = call i64 @strlen(ptr noundef nonnull dereferenceable(1) %3) #12
  call void @llvm.memcpy.p0.p0.i64(ptr nonnull align 1 %call23, ptr align 1 %3, i64 %call28, i1 false)
  br label %cleanup

cleanup:                                          ; preds = %invoke.cont, %invoke.cont22
  %retval.0 = phi ptr [ %call2, %invoke.cont22 ], [ null, %invoke.cont ]
  call void @_ZN6Assimp8ExporterD1Ev(ptr noundef nonnull align 8 dereferenceable(8) %exporter) #10
  ret ptr %retval.0
}